; Function Attrs: mustprogress nounwind uwtable
define void @_ZN6icu_758UniPropsD2Ev(ptr noundef nonnull align 8 dereferenceable(696) %this) unnamed_addr #0 align 2 {
entry:
  %scx = getelementptr inbounds i8, ptr %this, i64 496
  tail call void @_ZN6icu_7510UnicodeSetD1Ev(ptr noundef nonnull align 8 dereferenceable(200) %scx) #21
  %uc = getelementptr inbounds i8, ptr %this, i64 432
  tail call void @_ZN6icu_7513UnicodeStringD1Ev(ptr noundef nonnull align 8 dereferenceable(64) %uc) #21
  %tc = getelementptr inbounds i8, ptr %this, i64 368
  tail call void @_ZN6icu_7513UnicodeStringD1Ev(ptr noundef nonnull align 8 dereferenceable(64) %tc) #21
  %lc = getelementptr inbounds i8, ptr %this, i64 304
  tail call void @_ZN6icu_7513UnicodeStringD1Ev(ptr noundef nonnull align 8 dereferenceable(64) %lc) #21
  %cf = getelementptr inbounds i8, ptr %this, i64 240
  tail call void @_ZN6icu_7513UnicodeStringD1Ev(ptr noundef nonnull align 8 dereferenceable(64) %cf) #21
  ret void
}